((lp0
S'/home/kykymouse/LipNet/LipNet/training/overlapped_speakers/s1/datasets/train/s1/sssor'
p1
aS'/home/kykymouse/LipNet/LipNet/training/overlapped_speakers/s1/datasets/train/s1/ssboy'
p2
aS'/home/kykymouse/LipNet/LipNet/training/overlapped_speakers/s1/datasets/train/s1/sssfy'
p3
aS'/home/kykymouse/LipNet/LipNet/training/overlapped_speakers/s1/datasets/train/s1/ssusy'
p4
aS'/home/kykymouse/LipNet/LipNet/training/overlapped_speakers/s1/datasets/train/s1/ssufo'
p5
aS'/home/kykymouse/LipNet/LipNet/training/overlapped_speakers/s1/datasets/train/s1/ssbso'
p6
aS'/home/kykymouse/LipNet/LipNet/training/overlapped_speakers/s1/datasets/train/s1/ssuoy'
p7
aS'/home/kykymouse/LipNet/LipNet/training/overlapped_speakers/s1/datasets/train/s1/sssoy'
p8
aS'/home/kykymouse/LipNet/LipNet/training/overlapped_speakers/s1/datasets/train/s1/ssuoo'
p9
aS'/home/kykymouse/LipNet/LipNet/training/overlapped_speakers/s1/datasets/train/s1/ssusr'
p10
aS'/home/kykymouse/LipNet/LipNet/training/overlapped_speakers/s1/datasets/train/s1/ssbsy'
p11
aS'/home/kykymouse/LipNet/LipNet/training/overlapped_speakers/s1/datasets/train/s1/ssboo'
p12
aS'/home/kykymouse/LipNet/LipNet/training/overlapped_speakers/s1/datasets/train/s1/ssufy'
p13
aS'/home/kykymouse/LipNet/LipNet/training/overlapped_speakers/s1/datasets/train/s1/ssuso'
p14
aS'/home/kykymouse/LipNet/LipNet/training/overlapped_speakers/s1/datasets/train/s1/ssssy'
p15
aS'/home/kykymouse/LipNet/LipNet/training/overlapped_speakers/s1/datasets/train/s1/ssbfr'
p16
aS'/home/kykymouse/LipNet/LipNet/training/overlapped_speakers/s1/datasets/train/s1/ssbfy'
p17
aS'/home/kykymouse/LipNet/LipNet/training/overlapped_speakers/s1/datasets/train/s1/ssssr'
p18
aS'/home/kykymouse/LipNet/LipNet/training/overlapped_speakers/s1/datasets/train/s1/ssbor'
p19
aS'/home/kykymouse/LipNet/LipNet/training/overlapped_speakers/s1/datasets/train/s1/ssufr'
p20
aS'/home/kykymouse/LipNet/LipNet/training/overlapped_speakers/s1/datasets/train/s1/sssso'
p21
aS'/home/kykymouse/LipNet/LipNet/training/overlapped_speakers/s1/datasets/train/s1/sssoo'
p22
aS'/home/kykymouse/LipNet/LipNet/training/overlapped_speakers/s1/datasets/train/s1/sssfr'
p23
aS'/home/kykymouse/LipNet/LipNet/training/overlapped_speakers/s1/datasets/train/s1/ssbsr'
p24
aS'/home/kykymouse/LipNet/LipNet/training/overlapped_speakers/s1/datasets/train/s1/sssfo'
p25
aS'/home/kykymouse/LipNet/LipNet/training/overlapped_speakers/s1/datasets/train/s1/ssbfo'
p26
aS'/home/kykymouse/LipNet/LipNet/training/overlapped_speakers/s1/datasets/train/s1/ssuor'
p27
a(lp28
S'/home/kykymouse/LipNet/LipNet/training/overlapped_speakers/s1/datasets/val/s1/ssbfr'
p29
aS'/home/kykymouse/LipNet/LipNet/training/overlapped_speakers/s1/datasets/val/s1/ssbfy'
p30
aS'/home/kykymouse/LipNet/LipNet/training/overlapped_speakers/s1/datasets/val/s1/ssbfo'
p31
a(dp32
S'ssuoo'
p33
ccopy_reg
_reconstructor
p34
(clipnet.lipreading.aligns
Align
p35
c__builtin__
object
p36
Ntp37
Rp38
(dp39
S'sentence'
p40
V\ud559\uc0dd \ucd95\uad6c \ud558\uc9c0\ub9cc \uc77c \uc8fc\ud669
p41
sS'label_func'
p42
clipnet.lipreading.helpers
text_to_labels
p43
sS'align'
p44
(lp45
(I0
I24
V\ud559\uc0dd
p46
tp47
a(I24
I32
V\ucd95\uad6c
p48
tp49
a(I32
I48
V\ud558\uc9c0\ub9cc
p50
tp51
a(I48
I55
V\uc77c
p52
tp53
a(I55
I74
V\uc8fc\ud669
p54
tp55
asS'absolute_max_string_len'
p56
I32
sS'label'
p57
(lp58
I10585
aI5341
aI11172
aI8597
aI364
aI11172
aI10584
aI7616
aI3532
aI11172
aI7036
aI11172
aI7420
aI10857
asS'padded_label'
p59
(lp60
I10585
aI5341
aI11172
aI8597
aI364
aI11172
aI10584
aI7616
aI3532
aI11172
aI7036
aI11172
aI7420
aI10857
aI-1
aI-1
aI-1
aI-1
aI-1
aI-1
aI-1
aI-1
aI-1
aI-1
aI-1
aI-1
aI-1
aI-1
aI-1
aI-1
aI-1
aI-1
asbsS'ssusr'
p61
g34
(g35
g36
Ntp62
Rp63
(dp64
g40
V\ud559\uc0dd \ucd95\uad6c \ud558\uc9c0\ub9cc \uce60 \ube68\uac15
p65
sg42
g43
sg44
(lp66
(I0
I23
V\ud559\uc0dd
p67
tp68
a(I23
I34
V\ucd95\uad6c
p69
tp70
a(I34
I43
V\ud558\uc9c0\ub9cc
p71
tp72
a(I43
I55
V\uce60
p73
tp74
a(I55
I74
V\ube68\uac15
p75
tp76
asg56
I32
sg57
(lp77
I10585
aI5341
aI11172
aI8597
aI364
aI11172
aI10584
aI7616
aI3532
aI11172
aI8800
aI11172
aI4712
aI21
asg59
(lp78
I10585
aI5341
aI11172
aI8597
aI364
aI11172
aI10584
aI7616
aI3532
aI11172
aI8800
aI11172
aI4712
aI21
aI-1
aI-1
aI-1
aI-1
aI-1
aI-1
aI-1
aI-1
aI-1
aI-1
aI-1
aI-1
aI-1
aI-1
aI-1
aI-1
aI-1
aI-1
asbsS'ssbsr'
p79
g34
(g35
g36
Ntp80
Rp81
(dp82
g40
V\ud559\uc0dd \ucd95\uad6c \ud558\uc9c0\ub9cc \uce60 \ube68\uac15
p83
sg42
g43
sg44
(lp84
(I0
I24
V\ud559\uc0dd
p85
tp86
a(I24
I36
V\ucd95\uad6c
p87
tp88
a(I36
I45
V\ud558\uc9c0\ub9cc
p89
tp90
a(I45
I56
V\uce60
p91
tp92
a(I56
I74
V\ube68\uac15
p93
tp94
asg56
I32
sg57
(lp95
I10585
aI5341
aI11172
aI8597
aI364
aI11172
aI10584
aI7616
aI3532
aI11172
aI8800
aI11172
aI4712
aI21
asg59
(lp96
I10585
aI5341
aI11172
aI8597
aI364
aI11172
aI10584
aI7616
aI3532
aI11172
aI8800
aI11172
aI4712
aI21
aI-1
aI-1
aI-1
aI-1
aI-1
aI-1
aI-1
aI-1
aI-1
aI-1
aI-1
aI-1
aI-1
aI-1
aI-1
aI-1
aI-1
aI-1
asbsS'ssuoy'
p97
g34
(g35
g36
Ntp98
Rp99
(dp100
g40
V\ud559\uc0dd \ucd95\uad6c \ud558\uc9c0\ub9cc \uc77c \ub178\ub791
p101
sg42
g43
sg44
(lp102
(I0
I20
V\ud559\uc0dd
p103
tp104
a(I20
I33
V\ucd95\uad6c
p105
tp106
a(I33
I46
V\ud558\uc9c0\ub9cc
p107
tp108
a(I46
I54
V\uc77c
p109
tp110
a(I54
I74
V\ub178\ub791
p111
tp112
asg56
I32
sg57
(lp113
I10585
aI5341
aI11172
aI8597
aI364
aI11172
aI10584
aI7616
aI3532
aI11172
aI7036
aI11172
aI1400
aI2961
asg59
(lp114
I10585
aI5341
aI11172
aI8597
aI364
aI11172
aI10584
aI7616
aI3532
aI11172
aI7036
aI11172
aI1400
aI2961
aI-1
aI-1
aI-1
aI-1
aI-1
aI-1
aI-1
aI-1
aI-1
aI-1
aI-1
aI-1
aI-1
aI-1
aI-1
aI-1
aI-1
aI-1
asbsS'ssbsy'
p115
g34
(g35
g36
Ntp116
Rp117
(dp118
g40
V\ud559\uc0dd \ucd95\uad6c \ud558\uc9c0\ub9cc \uce60 \ub178\ub791
p119
sg42
g43
sg44
(lp120
(I0
I23
V\ud559\uc0dd
p121
tp122
a(I23
I36
V\ucd95\uad6c
p123
tp124
a(I36
I45
V\ud558\uc9c0\ub9cc
p125
tp126
a(I45
I59
V\uce60
p127
tp128
a(I59
I74
V\ub178\ub791
p129
tp130
asg56
I32
sg57
(lp131
I10585
aI5341
aI11172
aI8597
aI364
aI11172
aI10584
aI7616
aI3532
aI11172
aI8800
aI11172
aI1400
aI2961
asg59
(lp132
I10585
aI5341
aI11172
aI8597
aI364
aI11172
aI10584
aI7616
aI3532
aI11172
aI8800
aI11172
aI1400
aI2961
aI-1
aI-1
aI-1
aI-1
aI-1
aI-1
aI-1
aI-1
aI-1
aI-1
aI-1
aI-1
aI-1
aI-1
aI-1
aI-1
aI-1
aI-1
asbsS'ssusy'
p133
g34
(g35
g36
Ntp134
Rp135
(dp136
g40
V\ud559\uc0dd \ucd95\uad6c \ud558\uc9c0\ub9cc \uce60 \ub178\ub791
p137
sg42
g43
sg44
(lp138
(I0
I21
V\ud559\uc0dd
p139
tp140
a(I21
I34
V\ucd95\uad6c
p141
tp142
a(I34
I45
V\ud558\uc9c0\ub9cc
p143
tp144
a(I45
I60
V\uce60
p145
tp146
a(I60
I74
V\ub178\ub791
p147
tp148
asg56
I32
sg57
(lp149
I10585
aI5341
aI11172
aI8597
aI364
aI11172
aI10584
aI7616
aI3532
aI11172
aI8800
aI11172
aI1400
aI2961
asg59
(lp150
I10585
aI5341
aI11172
aI8597
aI364
aI11172
aI10584
aI7616
aI3532
aI11172
aI8800
aI11172
aI1400
aI2961
aI-1
aI-1
aI-1
aI-1
aI-1
aI-1
aI-1
aI-1
aI-1
aI-1
aI-1
aI-1
aI-1
aI-1
aI-1
aI-1
aI-1
aI-1
asbsS'ssssr'
p151
g34
(g35
g36
Ntp152
Rp153
(dp154
g40
V\ud559\uc0dd \ucd95\uad6c \ub530\ub77c\uc11c \uce60 \ube68\uac15
p155
sg42
g43
sg44
(lp156
(I0
I17
V\ud559\uc0dd
p157
tp158
a(I17
I30
V\ucd95\uad6c
p159
tp160
a(I30
I40
V\ub530\ub77c\uc11c
p161
tp162
a(I40
I50
V\uce60
p163
tp164
a(I50
I74
V\ube68\uac15
p165
tp166
asg56
I32
sg57
(lp167
I10585
aI5341
aI11172
aI8597
aI364
aI11172
aI2352
aI2940
aI5404
aI11172
aI8800
aI11172
aI4712
aI21
asg59
(lp168
I10585
aI5341
aI11172
aI8597
aI364
aI11172
aI2352
aI2940
aI5404
aI11172
aI8800
aI11172
aI4712
aI21
aI-1
aI-1
aI-1
aI-1
aI-1
aI-1
aI-1
aI-1
aI-1
aI-1
aI-1
aI-1
aI-1
aI-1
aI-1
aI-1
aI-1
aI-1
asbsS'sssso'
p169
g34
(g35
g36
Ntp170
Rp171
(dp172
g40
V\ud559\uc0dd \ucd95\uad6c \ub530\ub77c\uc11c \uce60 \ub178\ub791
p173
sg42
g43
sg44
(lp174
(I0
I22
V\ud559\uc0dd
p175
tp176
a(I22
I35
V\ucd95\uad6c
p177
tp178
a(I35
I44
V\ub530\ub77c\uc11c
p179
tp180
a(I44
I55
V\uce60
p181
tp182
a(I55
I74
V\ub178\ub791
p183
tp184
asg56
I32
sg57
(lp185
I10585
aI5341
aI11172
aI8597
aI364
aI11172
aI2352
aI2940
aI5404
aI11172
aI8800
aI11172
aI1400
aI2961
asg59
(lp186
I10585
aI5341
aI11172
aI8597
aI364
aI11172
aI2352
aI2940
aI5404
aI11172
aI8800
aI11172
aI1400
aI2961
aI-1
aI-1
aI-1
aI-1
aI-1
aI-1
aI-1
aI-1
aI-1
aI-1
aI-1
aI-1
aI-1
aI-1
aI-1
aI-1
aI-1
aI-1
asbsS'ssuso'
p187
g34
(g35
g36
Ntp188
Rp189
(dp190
g40
V\ud559\uc0dd \ucd95\uad6c \ud558\uc9c0\ub9cc \uce60 \uc8fc\ud669
p191
sg42
g43
sg44
(lp192
(I0
I23
V\ud559\uc0dd
p193
tp194
a(I23
I34
V\ucd95\uad6c
p195
tp196
a(I34
I44
V\ud558\uc9c0\ub9cc
p197
tp198
a(I44
I58
V\uce60
p199
tp200
a(I58
I74
V\uc8fc\ud669
p201
tp202
asg56
I32
sg57
(lp203
I10585
aI5341
aI11172
aI8597
aI364
aI11172
aI10584
aI7616
aI3532
aI11172
aI8800
aI11172
aI7420
aI10857
asg59
(lp204
I10585
aI5341
aI11172
aI8597
aI364
aI11172
aI10584
aI7616
aI3532
aI11172
aI8800
aI11172
aI7420
aI10857
aI-1
aI-1
aI-1
aI-1
aI-1
aI-1
aI-1
aI-1
aI-1
aI-1
aI-1
aI-1
aI-1
aI-1
aI-1
aI-1
aI-1
aI-1
asbsS'ssuor'
p205
g34
(g35
g36
Ntp206
Rp207
(dp208
g40
V\ud559\uc0dd \ucd95\uad6c \ud558\uc9c0\ub9cc \uc77c \ube68\uac15
p209
sg42
g43
sg44
(lp210
(I0
I25
V\ud559\uc0dd
p211
tp212
a(I25
I33
V\ucd95\uad6c
p213
tp214
a(I33
I48
V\ud558\uc9c0\ub9cc
p215
tp216
a(I48
I58
V\uc77c
p217
tp218
a(I58
I74
V\ube68\uac15
p219
tp220
asg56
I32
sg57
(lp221
I10585
aI5341
aI11172
aI8597
aI364
aI11172
aI10584
aI7616
aI3532
aI11172
aI7036
aI11172
aI4712
aI21
asg59
(lp222
I10585
aI5341
aI11172
aI8597
aI364
aI11172
aI10584
aI7616
aI3532
aI11172
aI7036
aI11172
aI4712
aI21
aI-1
aI-1
aI-1
aI-1
aI-1
aI-1
aI-1
aI-1
aI-1
aI-1
aI-1
aI-1
aI-1
aI-1
aI-1
aI-1
aI-1
aI-1
asbsS'ssbso'
p223
g34
(g35
g36
Ntp224
Rp225
(dp226
g40
V\ud559\uc0dd \ucd95\uad6c \ud558\uc9c0\ub9cc \uce60 \ub178\ub791
p227
sg42
g43
sg44
(lp228
(I0
I22
V\ud559\uc0dd
p229
tp230
a(I22
I38
V\ucd95\uad6c
p231
tp232
a(I38
I45
V\ud558\uc9c0\ub9cc
p233
tp234
a(I45
I57
V\uce60
p235
tp236
a(I57
I74
V\ub178\ub791
p237
tp238
asg56
I32
sg57
(lp239
I10585
aI5341
aI11172
aI8597
aI364
aI11172
aI10584
aI7616
aI3532
aI11172
aI8800
aI11172
aI1400
aI2961
asg59
(lp240
I10585
aI5341
aI11172
aI8597
aI364
aI11172
aI10584
aI7616
aI3532
aI11172
aI8800
aI11172
aI1400
aI2961
aI-1
aI-1
aI-1
aI-1
aI-1
aI-1
aI-1
aI-1
aI-1
aI-1
aI-1
aI-1
aI-1
aI-1
aI-1
aI-1
aI-1
aI-1
asbsS'ssbfr'
p241
g34
(g35
g36
Ntp242
Rp243
(dp244
g40
V\ud559\uc0dd \ucd95\uad6c \ud558\uc9c0\ub9cc \uc0ac \ube68\uac15
p245
sg42
g43
sg44
(lp246
(I0
I22
V\ud559\uc0dd
p247
tp248
a(I22
I35
V\ucd95\uad6c
p249
tp250
a(I35
I43
V\ud558\uc9c0\ub9cc
p251
tp252
a(I43
I56
V\uc0ac
p253
tp254
a(I56
I74
V\ube68\uac15
p255
tp256
asg56
I32
sg57
(lp257
I10585
aI5341
aI11172
aI8597
aI364
aI11172
aI10584
aI7616
aI3532
aI11172
aI5292
aI11172
aI4712
aI21
asg59
(lp258
I10585
aI5341
aI11172
aI8597
aI364
aI11172
aI10584
aI7616
aI3532
aI11172
aI5292
aI11172
aI4712
aI21
aI-1
aI-1
aI-1
aI-1
aI-1
aI-1
aI-1
aI-1
aI-1
aI-1
aI-1
aI-1
aI-1
aI-1
aI-1
aI-1
aI-1
aI-1
asbsS'ssssy'
p259
g34
(g35
g36
Ntp260
Rp261
(dp262
g40
V\ud559\uc0dd \ucd95\uad6c \ub530\ub77c\uc11c \uce60 \ub178\ub791
p263
sg42
g43
sg44
(lp264
(I0
I17
V\ud559\uc0dd
p265
tp266
a(I17
I30
V\ucd95\uad6c
p267
tp268
a(I30
I40
V\ub530\ub77c\uc11c
p269
tp270
a(I40
I52
V\uce60
p271
tp272
a(I52
I74
V\ub178\ub791
p273
tp274
asg56
I32
sg57
(lp275
I10585
aI5341
aI11172
aI8597
aI364
aI11172
aI2352
aI2940
aI5404
aI11172
aI8800
aI11172
aI1400
aI2961
asg59
(lp276
I10585
aI5341
aI11172
aI8597
aI364
aI11172
aI2352
aI2940
aI5404
aI11172
aI8800
aI11172
aI1400
aI2961
aI-1
aI-1
aI-1
aI-1
aI-1
aI-1
aI-1
aI-1
aI-1
aI-1
aI-1
aI-1
aI-1
aI-1
aI-1
aI-1
aI-1
aI-1
asbsS'sssoy'
p277
g34
(g35
g36
Ntp278
Rp279
(dp280
g40
V\ud559\uc0dd \ucd95\uad6c \ub530\ub77c\uc11c \uc77c \ub178\ub791
p281
sg42
g43
sg44
(lp282
(I0
I21
V\ud559\uc0dd
p283
tp284
a(I21
I35
V\ucd95\uad6c
p285
tp286
a(I35
I45
V\ub530\ub77c\uc11c
p287
tp288
a(I45
I57
V\uc77c
p289
tp290
a(I57
I74
V\ub178\ub791
p291
tp292
asg56
I32
sg57
(lp293
I10585
aI5341
aI11172
aI8597
aI364
aI11172
aI2352
aI2940
aI5404
aI11172
aI7036
aI11172
aI1400
aI2961
asg59
(lp294
I10585
aI5341
aI11172
aI8597
aI364
aI11172
aI2352
aI2940
aI5404
aI11172
aI7036
aI11172
aI1400
aI2961
aI-1
aI-1
aI-1
aI-1
aI-1
aI-1
aI-1
aI-1
aI-1
aI-1
aI-1
aI-1
aI-1
aI-1
aI-1
aI-1
aI-1
aI-1
asbsS'ssbfy'
p295
g34
(g35
g36
Ntp296
Rp297
(dp298
g40
V\ud559\uc0dd \ucd95\uad6c \uadf8\ub7ec\ub098 \uc0ac \ub178\ub791
p299
sg42
g43
sg44
(lp300
(I0
I21
V\ud559\uc0dd
p301
tp302
a(I21
I39
V\ucd95\uad6c
p303
tp304
a(I39
I46
V\uadf8\ub7ec\ub098
p305
tp306
a(I46
I58
V\uc0ac
p307
tp308
a(I58
I74
V\ub178\ub791
p309
tp310
asg56
I32
sg57
(lp311
I10585
aI5341
aI11172
aI8597
aI364
aI11172
aI504
aI3052
aI1176
aI11172
aI5292
aI11172
aI1400
aI2961
asg59
(lp312
I10585
aI5341
aI11172
aI8597
aI364
aI11172
aI504
aI3052
aI1176
aI11172
aI5292
aI11172
aI1400
aI2961
aI-1
aI-1
aI-1
aI-1
aI-1
aI-1
aI-1
aI-1
aI-1
aI-1
aI-1
aI-1
aI-1
aI-1
aI-1
aI-1
aI-1
aI-1
asbsS'sssor'
p313
g34
(g35
g36
Ntp314
Rp315
(dp316
g40
V\ud559\uc0dd \ucd95\uad6c \ub530\ub77c\uc11c \uc77c \ube68\uac15
p317
sg42
g43
sg44
(lp318
(I0
I21
V\ud559\uc0dd
p319
tp320
a(I21
I35
V\ucd95\uad6c
p321
tp322
a(I35
I47
V\ub530\ub77c\uc11c
p323
tp324
a(I47
I57
V\uc77c
p325
tp326
a(I57
I74
V\ube68\uac15
p327
tp328
asg56
I32
sg57
(lp329
I10585
aI5341
aI11172
aI8597
aI364
aI11172
aI2352
aI2940
aI5404
aI11172
aI7036
aI11172
aI4712
aI21
asg59
(lp330
I10585
aI5341
aI11172
aI8597
aI364
aI11172
aI2352
aI2940
aI5404
aI11172
aI7036
aI11172
aI4712
aI21
aI-1
aI-1
aI-1
aI-1
aI-1
aI-1
aI-1
aI-1
aI-1
aI-1
aI-1
aI-1
aI-1
aI-1
aI-1
aI-1
aI-1
aI-1
asbsS'sssoo'
p331
g34
(g35
g36
Ntp332
Rp333
(dp334
g40
V\ud559\uc0dd \ucd95\uad6c \ub530\ub77c\uc11c \uc77c \uc8fc\ud669
p335
sg42
g43
sg44
(lp336
(I0
I21
V\ud559\uc0dd
p337
tp338
a(I21
I35
V\ucd95\uad6c
p339
tp340
a(I35
I47
V\ub530\ub77c\uc11c
p341
tp342
a(I47
I56
V\uc77c
p343
tp344
a(I56
I74
V\uc8fc\ud669
p345
tp346
asg56
I32
sg57
(lp347
I10585
aI5341
aI11172
aI8597
aI364
aI11172
aI2352
aI2940
aI5404
aI11172
aI7036
aI11172
aI7420
aI10857
asg59
(lp348
I10585
aI5341
aI11172
aI8597
aI364
aI11172
aI2352
aI2940
aI5404
aI11172
aI7036
aI11172
aI7420
aI10857
aI-1
aI-1
aI-1
aI-1
aI-1
aI-1
aI-1
aI-1
aI-1
aI-1
aI-1
aI-1
aI-1
aI-1
aI-1
aI-1
aI-1
aI-1
asbsS'ssbfo'
p349
g34
(g35
g36
Ntp350
Rp351
(dp352
g40
V\ud559\uc0dd \ucd95\uad6c \ud558\uc9c0\ub9cc \uc0ac \uc8fc\ud669
p353
sg42
g43
sg44
(lp354
(I0
I23
V\ud559\uc0dd
p355
tp356
a(I23
I41
V\ucd95\uad6c
p357
tp358
a(I41
I47
V\ud558\uc9c0\ub9cc
p359
tp360
a(I47
I59
V\uc0ac
p361
tp362
a(I59
I74
V\uc8fc\ud669
p363
tp364
asg56
I32
sg57
(lp365
I10585
aI5341
aI11172
aI8597
aI364
aI11172
aI10584
aI7616
aI3532
aI11172
aI5292
aI11172
aI7420
aI10857
asg59
(lp366
I10585
aI5341
aI11172
aI8597
aI364
aI11172
aI10584
aI7616
aI3532
aI11172
aI5292
aI11172
aI7420
aI10857
aI-1
aI-1
aI-1
aI-1
aI-1
aI-1
aI-1
aI-1
aI-1
aI-1
aI-1
aI-1
aI-1
aI-1
aI-1
aI-1
aI-1
aI-1
asbsS'ssbor'
p367
g34
(g35
g36
Ntp368
Rp369
(dp370
g40
V\ud559\uc0dd \ucd95\uad6c \ud558\uc9c0\ub9cc \uc77c \ube68\uac15
p371
sg42
g43
sg44
(lp372
(I0
I21
V\ud559\uc0dd
p373
tp374
a(I21
I39
V\ucd95\uad6c
p375
tp376
a(I39
I46
V\ud558\uc9c0\ub9cc
p377
tp378
a(I46
I55
V\uc77c
p379
tp380
a(I55
I74
V\ube68\uac15
p381
tp382
asg56
I32
sg57
(lp383
I10585
aI5341
aI11172
aI8597
aI364
aI11172
aI10584
aI7616
aI3532
aI11172
aI7036
aI11172
aI4712
aI21
asg59
(lp384
I10585
aI5341
aI11172
aI8597
aI364
aI11172
aI10584
aI7616
aI3532
aI11172
aI7036
aI11172
aI4712
aI21
aI-1
aI-1
aI-1
aI-1
aI-1
aI-1
aI-1
aI-1
aI-1
aI-1
aI-1
aI-1
aI-1
aI-1
aI-1
aI-1
aI-1
aI-1
asbsS'ssboy'
p385
g34
(g35
g36
Ntp386
Rp387
(dp388
g40
V\ud559\uc0dd \ucd95\uad6c \ud558\uc9c0\ub9cc \uc77c \ub178\ub791
p389
sg42
g43
sg44
(lp390
(I0
I21
V\ud559\uc0dd
p391
tp392
a(I21
I41
V\ucd95\uad6c
p393
tp394
a(I41
I47
V\ud558\uc9c0\ub9cc
p395
tp396
a(I47
I56
V\uc77c
p397
tp398
a(I56
I74
V\ub178\ub791
p399
tp400
asg56
I32
sg57
(lp401
I10585
aI5341
aI11172
aI8597
aI364
aI11172
aI10584
aI7616
aI3532
aI11172
aI7036
aI11172
aI1400
aI2961
asg59
(lp402
I10585
aI5341
aI11172
aI8597
aI364
aI11172
aI10584
aI7616
aI3532
aI11172
aI7036
aI11172
aI1400
aI2961
aI-1
aI-1
aI-1
aI-1
aI-1
aI-1
aI-1
aI-1
aI-1
aI-1
aI-1
aI-1
aI-1
aI-1
aI-1
aI-1
aI-1
aI-1
asbsS'ssboo'
p403
g34
(g35
g36
Ntp404
Rp405
(dp406
g40
V\ud559\uc0dd \ucd95\uad6c \uadf8\ub7ec\ub098 \uc77c \uc8fc\ud669
p407
sg42
g43
sg44
(lp408
(I0
I22
V\ud559\uc0dd
p409
tp410
a(I22
I39
V\ucd95\uad6c
p411
tp412
a(I39
I49
V\uadf8\ub7ec\ub098
p413
tp414
a(I49
I59
V\uc77c
p415
tp416
a(I59
I74
V\uc8fc\ud669
p417
tp418
asg56
I32
sg57
(lp419
I10585
aI5341
aI11172
aI8597
aI364
aI11172
aI504
aI3052
aI1176
aI11172
aI7036
aI11172
aI7420
aI10857
asg59
(lp420
I10585
aI5341
aI11172
aI8597
aI364
aI11172
aI504
aI3052
aI1176
aI11172
aI7036
aI11172
aI7420
aI10857
aI-1
aI-1
aI-1
aI-1
aI-1
aI-1
aI-1
aI-1
aI-1
aI-1
aI-1
aI-1
aI-1
aI-1
aI-1
aI-1
aI-1
aI-1
asbsS'ssufr'
p421
g34
(g35
g36
Ntp422
Rp423
(dp424
g40
V\ud559\uc0dd \ucd95\uad6c \ud558\uc9c0\ub9cc \uc0ac \ube68\uac15
p425
sg42
g43
sg44
(lp426
(I0
I20
V\ud559\uc0dd
p427
tp428
a(I20
I30
V\ucd95\uad6c
p429
tp430
a(I30
I44
V\ud558\uc9c0\ub9cc
p431
tp432
a(I44
I53
V\uc0ac
p433
tp434
a(I53
I74
V\ube68\uac15
p435
tp436
asg56
I32
sg57
(lp437
I10585
aI5341
aI11172
aI8597
aI364
aI11172
aI10584
aI7616
aI3532
aI11172
aI5292
aI11172
aI4712
aI21
asg59
(lp438
I10585
aI5341
aI11172
aI8597
aI364
aI11172
aI10584
aI7616
aI3532
aI11172
aI5292
aI11172
aI4712
aI21
aI-1
aI-1
aI-1
aI-1
aI-1
aI-1
aI-1
aI-1
aI-1
aI-1
aI-1
aI-1
aI-1
aI-1
aI-1
aI-1
aI-1
aI-1
asbsS'ssufy'
p439
g34
(g35
g36
Ntp440
Rp441
(dp442
g40
V\ud559\uc0dd \ucd95\uad6c \ud558\uc9c0\ub9cc \uc0ac \ub178\ub791
p443
sg42
g43
sg44
(lp444
(I0
I20
V\ud559\uc0dd
p445
tp446
a(I20
I31
V\ucd95\uad6c
p447
tp448
a(I31
I44
V\ud558\uc9c0\ub9cc
p449
tp450
a(I44
I57
V\uc0ac
p451
tp452
a(I57
I74
V\ub178\ub791
p453
tp454
asg56
I32
sg57
(lp455
I10585
aI5341
aI11172
aI8597
aI364
aI11172
aI10584
aI7616
aI3532
aI11172
aI5292
aI11172
aI1400
aI2961
asg59
(lp456
I10585
aI5341
aI11172
aI8597
aI364
aI11172
aI10584
aI7616
aI3532
aI11172
aI5292
aI11172
aI1400
aI2961
aI-1
aI-1
aI-1
aI-1
aI-1
aI-1
aI-1
aI-1
aI-1
aI-1
aI-1
aI-1
aI-1
aI-1
aI-1
aI-1
aI-1
aI-1
asbsS'sssfr'
p457
g34
(g35
g36
Ntp458
Rp459
(dp460
g40
V\ud559\uc0dd \ucd95\uad6c \ub530\ub77c\uc11c \uc0ac \ube68\uac15
p461
sg42
g43
sg44
(lp462
(I0
I25
V\ud559\uc0dd
p463
tp464
a(I25
I37
V\ucd95\uad6c
p465
tp466
a(I37
I50
V\ub530\ub77c\uc11c
p467
tp468
a(I50
I59
V\uc0ac
p469
tp470
a(I59
I74
V\ube68\uac15
p471
tp472
asg56
I32
sg57
(lp473
I10585
aI5341
aI11172
aI8597
aI364
aI11172
aI2352
aI2940
aI5404
aI11172
aI5292
aI11172
aI4712
aI21
asg59
(lp474
I10585
aI5341
aI11172
aI8597
aI364
aI11172
aI2352
aI2940
aI5404
aI11172
aI5292
aI11172
aI4712
aI21
aI-1
aI-1
aI-1
aI-1
aI-1
aI-1
aI-1
aI-1
aI-1
aI-1
aI-1
aI-1
aI-1
aI-1
aI-1
aI-1
aI-1
aI-1
asbsS'sssfo'
p475
g34
(g35
g36
Ntp476
Rp477
(dp478
g40
V\ud559\uc0dd \ucd95\uad6c \ud558\uc9c0\ub9cc \uce60 \uc8fc\ud669
p479
sg42
g43
sg44
(lp480
(I0
I24
V\ud559\uc0dd
p481
tp482
a(I24
I36
V\ucd95\uad6c
p483
tp484
a(I36
I49
V\ud558\uc9c0\ub9cc
p485
tp486
a(I49
I59
V\uce60
p487
tp488
a(I59
I74
V\uc8fc\ud669
p489
tp490
asg56
I32
sg57
(lp491
I10585
aI5341
aI11172
aI8597
aI364
aI11172
aI10584
aI7616
aI3532
aI11172
aI8800
aI11172
aI7420
aI10857
asg59
(lp492
I10585
aI5341
aI11172
aI8597
aI364
aI11172
aI10584
aI7616
aI3532
aI11172
aI8800
aI11172
aI7420
aI10857
aI-1
aI-1
aI-1
aI-1
aI-1
aI-1
aI-1
aI-1
aI-1
aI-1
aI-1
aI-1
aI-1
aI-1
aI-1
aI-1
aI-1
aI-1
asbsS'ssufo'
p493
g34
(g35
g36
Ntp494
Rp495
(dp496
g40
V\ud559\uc0dd \ucd95\uad6c \ud558\uc9c0\ub9cc \uc0ac \uc8fc\ud669
p497
sg42
g43
sg44
(lp498
(I0
I19
V\ud559\uc0dd
p499
tp500
a(I19
I32
V\ucd95\uad6c
p501
tp502
a(I32
I47
V\ud558\uc9c0\ub9cc
p503
tp504
a(I47
I56
V\uc0ac
p505
tp506
a(I56
I74
V\uc8fc\ud669
p507
tp508
asg56
I32
sg57
(lp509
I10585
aI5341
aI11172
aI8597
aI364
aI11172
aI10584
aI7616
aI3532
aI11172
aI5292
aI11172
aI7420
aI10857
asg59
(lp510
I10585
aI5341
aI11172
aI8597
aI364
aI11172
aI10584
aI7616
aI3532
aI11172
aI5292
aI11172
aI7420
aI10857
aI-1
aI-1
aI-1
aI-1
aI-1
aI-1
aI-1
aI-1
aI-1
aI-1
aI-1
aI-1
aI-1
aI-1
aI-1
aI-1
aI-1
aI-1
asbsS'sssfy'
p511
g34
(g35
g36
Ntp512
Rp513
(dp514
g40
V\ud559\uc0dd \ucd95\uad6c \ub530\ub77c\uc11c \uc0ac \ub178\ub791
p515
sg42
g43
sg44
(lp516
(I0
I24
V\ud559\uc0dd
p517
tp518
a(I24
I38
V\ucd95\uad6c
p519
tp520
a(I38
I50
V\ub530\ub77c\uc11c
p521
tp522
a(I50
I60
V\uc0ac
p523
tp524
a(I60
I74
V\ub178\ub791
p525
tp526
asg56
I32
sg57
(lp527
I10585
aI5341
aI11172
aI8597
aI364
aI11172
aI2352
aI2940
aI5404
aI11172
aI5292
aI11172
aI1400
aI2961
asg59
(lp528
I10585
aI5341
aI11172
aI8597
aI364
aI11172
aI2352
aI2940
aI5404
aI11172
aI5292
aI11172
aI1400
aI2961
aI-1
aI-1
aI-1
aI-1
aI-1
aI-1
aI-1
aI-1
aI-1
aI-1
aI-1
aI-1
aI-1
aI-1
aI-1
aI-1
aI-1
aI-1
asbstp529
.